; Function Attrs: nounwind uwtable
define noundef ptr @ggml_conv_1d_dw(ptr noundef captures(none) %0, ptr noundef %1, ptr noundef %2, i32 noundef %3, i32 noundef %4, i32 noundef %5) local_unnamed_addr #4 {
  %7 = getelementptr inbounds nuw i8, ptr %1, i64 16
  %8 = load i64, ptr %7, align 8, !tbaa !39
  %9 = getelementptr inbounds nuw i8, ptr %1, i64 24
  %10 = load i64, ptr %9, align 8, !tbaa !39
  %11 = getelementptr inbounds nuw i8, ptr %1, i64 32
  %12 = load i64, ptr %11, align 8, !tbaa !39
  %13 = tail call ptr @ggml_reshape_4d(ptr noundef %0, ptr noundef %1, i64 noundef %8, i64 noundef 1, i64 noundef %10, i64 noundef %12)
  %14 = getelementptr inbounds nuw i8, ptr %2, i64 16
  %15 = load i64, ptr %14, align 8, !tbaa !39
  %16 = getelementptr inbounds nuw i8, ptr %2, i64 24
  %17 = load i64, ptr %16, align 8, !tbaa !39
  %18 = getelementptr inbounds nuw i8, ptr %2, i64 32
  %19 = load i64, ptr %18, align 8, !tbaa !39
  %20 = tail call ptr @ggml_reshape_4d(ptr noundef %0, ptr noundef %2, i64 noundef %15, i64 noundef 1, i64 noundef %17, i64 noundef %19)
  %21 = tail call ptr @ggml_im2col(ptr noundef %0, ptr noundef %13, ptr noundef %20, i32 noundef %3, i32 noundef 0, i32 noundef %4, i32 noundef 0, i32 noundef %5, i32 noundef 0, i1 noundef zeroext false, i32 noundef 1)
  %22 = tail call ptr @ggml_mul_mat(ptr noundef %0, ptr noundef %21, ptr noundef %1)
  %23 = load i64, ptr %14, align 8, !tbaa !39
  %24 = load i64, ptr %16, align 8, !tbaa !39
  %25 = tail call ptr @ggml_reshape_3d(ptr noundef %0, ptr noundef %22, i64 noundef %23, i64 noundef %24, i64 noundef 1)
  ret ptr %25
}